; Function Attrs: mustprogress nounwind uwtable
define void @_ZN13FileSetDialogD2Ev(ptr noundef nonnull align 8 dereferenceable(92) %0) unnamed_addr #5 align 2 personality ptr @__gxx_personality_v0 {
  store ptr getelementptr inbounds ({ [59 x ptr], [10 x ptr] }, ptr @_ZTV13FileSetDialog, i64 0, i32 0, i64 2), ptr %0, align 8
  %2 = getelementptr inbounds i8, ptr %0, i64 16
  store ptr getelementptr inbounds ({ [59 x ptr], [10 x ptr] }, ptr @_ZTV13FileSetDialog, i64 0, i32 1, i64 2), ptr %2, align 8
  %3 = getelementptr inbounds i8, ptr %0, i64 72
  %4 = load ptr, ptr %3, align 8
  invoke void @_ZN17FilesetEntryModel5clearEv(ptr noundef nonnull align 8 dereferenceable(40) %4)
          to label %5 unwind label %11

5:                                                ; preds = %1
  %6 = getelementptr inbounds i8, ptr %0, i64 64
  %7 = load ptr, ptr %6, align 8
  %8 = icmp eq ptr %7, null
  br i1 %8, label %10, label %9

9:                                                ; preds = %5
  tail call void @_ZdlPv(ptr noundef nonnull %7) #17
  br label %10

10:                                               ; preds = %9, %5
  tail call void @_ZN19GeometryStateDialogD2Ev(ptr noundef nonnull align 8 dereferenceable(64) %0) #15
  ret void

11:                                               ; preds = %1
  %12 = landingpad { ptr, i32 }
          catch ptr null
  %13 = extractvalue { ptr, i32 } %12, 0
  tail call void @__clang_call_terminate(ptr %13) #18
  unreachable
}